target datalayout = "e-m:e-p270:32:32-p271:32:32-p272:64:64-i64:64-i128:128-f80:128-n8:16:32:64-S128"
target triple = "x86_64-pc-linux-gnu"

; Function Attrs: nounwind uwtable
define dso_local i32 @patternHashSlot(ptr noundef %0, i32 noundef %1) #0 {
  %3 = alloca i32, align 4
  %4 = alloca ptr, align 8
  %5 = alloca i32, align 4
  %6 = alloca i32, align 4
  %7 = alloca i32, align 4
  %8 = alloca i32, align 4
  store ptr %0, ptr %4, align 8, !tbaa !5
  store i32 %1, ptr %5, align 4, !tbaa !10
  call void @llvm.lifetime.start.p0(i64 4, ptr %6) #14
  store i32 -1, ptr %6, align 4, !tbaa !10
  call void @llvm.lifetime.start.p0(i64 4, ptr %7) #14
  store i32 0, ptr %7, align 4, !tbaa !10
  br label %9

9:                                                ; preds = %107, %2
  %10 = load i32, ptr %7, align 4, !tbaa !10
  %11 = load i32, ptr %5, align 4, !tbaa !10
  %12 = icmp slt i32 %10, %11
  br i1 %12, label %14, label %13

13:                                               ; preds = %9
  store i32 2, ptr %8, align 4
  br label %110

14:                                               ; preds = %9
  %15 = load ptr, ptr %4, align 8, !tbaa !5
  %16 = load i32, ptr %7, align 4, !tbaa !10
  %17 = sext i32 %16 to i64
  %18 = getelementptr inbounds i8, ptr %15, i64 %17
  %19 = load i8, ptr %18, align 1, !tbaa !12
  %20 = sext i8 %19 to i32
  %21 = icmp eq i32 %20, 42
  br i1 %21, label %38, label %22

22:                                               ; preds = %14
  %23 = load ptr, ptr %4, align 8, !tbaa !5
  %24 = load i32, ptr %7, align 4, !tbaa !10
  %25 = sext i32 %24 to i64
  %26 = getelementptr inbounds i8, ptr %23, i64 %25
  %27 = load i8, ptr %26, align 1, !tbaa !12
  %28 = sext i8 %27 to i32
  %29 = icmp eq i32 %28, 63
  br i1 %29, label %38, label %30

30:                                               ; preds = %22
  %31 = load ptr, ptr %4, align 8, !tbaa !5
  %32 = load i32, ptr %7, align 4, !tbaa !10
  %33 = sext i32 %32 to i64
  %34 = getelementptr inbounds i8, ptr %31, i64 %33
  %35 = load i8, ptr %34, align 1, !tbaa !12
  %36 = sext i8 %35 to i32
  %37 = icmp eq i32 %36, 91
  br i1 %37, label %38, label %39

38:                                               ; preds = %30, %22, %14
  store i32 -1, ptr %3, align 4
  store i32 1, ptr %8, align 4
  br label %110

39:                                               ; preds = %30
  %40 = load ptr, ptr %4, align 8, !tbaa !5
  %41 = load i32, ptr %7, align 4, !tbaa !10
  %42 = sext i32 %41 to i64
  %43 = getelementptr inbounds i8, ptr %40, i64 %42
  %44 = load i8, ptr %43, align 1, !tbaa !12
  %45 = sext i8 %44 to i32
  %46 = icmp eq i32 %45, 92
  br i1 %46, label %47, label %48

47:                                               ; preds = %39
  store i32 -1, ptr %3, align 4
  store i32 1, ptr %8, align 4
  br label %110

48:                                               ; preds = %39
  %49 = load i32, ptr %6, align 4, !tbaa !10
  %50 = icmp eq i32 %49, -1
  br i1 %50, label %51, label %61

51:                                               ; preds = %48
  %52 = load ptr, ptr %4, align 8, !tbaa !5
  %53 = load i32, ptr %7, align 4, !tbaa !10
  %54 = sext i32 %53 to i64
  %55 = getelementptr inbounds i8, ptr %52, i64 %54
  %56 = load i8, ptr %55, align 1, !tbaa !12
  %57 = sext i8 %56 to i32
  %58 = icmp eq i32 %57, 123
  br i1 %58, label %59, label %61

59:                                               ; preds = %51
  %60 = load i32, ptr %7, align 4, !tbaa !10
  store i32 %60, ptr %6, align 4, !tbaa !10
  br label %104

61:                                               ; preds = %51, %48
  %62 = load i32, ptr %6, align 4, !tbaa !10
  %63 = icmp sge i32 %62, 0
  br i1 %63, label %64, label %78

64:                                               ; preds = %61
  %65 = load ptr, ptr %4, align 8, !tbaa !5
  %66 = load i32, ptr %7, align 4, !tbaa !10
  %67 = sext i32 %66 to i64
  %68 = getelementptr inbounds i8, ptr %65, i64 %67
  %69 = load i8, ptr %68, align 1, !tbaa !12
  %70 = sext i8 %69 to i32
  %71 = icmp eq i32 %70, 125
  br i1 %71, label %72, label %78

72:                                               ; preds = %64
  %73 = load i32, ptr %7, align 4, !tbaa !10
  %74 = load i32, ptr %6, align 4, !tbaa !10
  %75 = add nsw i32 %74, 1
  %76 = icmp eq i32 %73, %75
  br i1 %76, label %77, label %78

77:                                               ; preds = %72
  store i32 -2, ptr %6, align 4, !tbaa !10
  br label %103

78:                                               ; preds = %72, %64, %61
  %79 = load i32, ptr %6, align 4, !tbaa !10
  %80 = icmp sge i32 %79, 0
  br i1 %80, label %81, label %102

81:                                               ; preds = %78
  %82 = load ptr, ptr %4, align 8, !tbaa !5
  %83 = load i32, ptr %7, align 4, !tbaa !10
  %84 = sext i32 %83 to i64
  %85 = getelementptr inbounds i8, ptr %82, i64 %84
  %86 = load i8, ptr %85, align 1, !tbaa !12
  %87 = sext i8 %86 to i32
  %88 = icmp eq i32 %87, 125
  br i1 %88, label %89, label %102

89:                                               ; preds = %81
  %90 = load ptr, ptr %4, align 8, !tbaa !5
  %91 = load i32, ptr %6, align 4, !tbaa !10
  %92 = sext i32 %91 to i64
  %93 = getelementptr inbounds i8, ptr %90, i64 %92
  %94 = getelementptr inbounds i8, ptr %93, i64 1
  %95 = load i32, ptr %7, align 4, !tbaa !10
  %96 = load i32, ptr %6, align 4, !tbaa !10
  %97 = sub nsw i32 %95, %96
  %98 = sub nsw i32 %97, 1
  %99 = call zeroext i16 @crc16(ptr noundef %94, i32 noundef %98)
  %100 = zext i16 %99 to i32
  %101 = and i32 %100, 16383
  store i32 %101, ptr %3, align 4
  store i32 1, ptr %8, align 4
  br label %110

102:                                              ; preds = %81, %78
  br label %103

103:                                              ; preds = %102, %77
  br label %104

104:                                              ; preds = %103, %59
  br label %105

105:                                              ; preds = %104
  br label %106

106:                                              ; preds = %105
  br label %107

107:                                              ; preds = %106
  %108 = load i32, ptr %7, align 4, !tbaa !10
  %109 = add nsw i32 %108, 1
  store i32 %109, ptr %7, align 4, !tbaa !10
  br label %9, !llvm.loop !13

110:                                              ; preds = %89, %47, %38, %13
  call void @llvm.lifetime.end.p0(i64 4, ptr %7) #14
  %111 = load i32, ptr %8, align 4
  switch i32 %111, label %118 [
    i32 2, label %112
  ]

112:                                              ; preds = %110
  %113 = load ptr, ptr %4, align 8, !tbaa !5
  %114 = load i32, ptr %5, align 4, !tbaa !10
  %115 = call zeroext i16 @crc16(ptr noundef %113, i32 noundef %114)
  %116 = zext i16 %115 to i32
  %117 = and i32 %116, 16383
  store i32 %117, ptr %3, align 4
  store i32 1, ptr %8, align 4
  br label %118

118:                                              ; preds = %112, %110
  call void @llvm.lifetime.end.p0(i64 4, ptr %6) #14
  %119 = load i32, ptr %3, align 4
  ret i32 %119
}