; Function Attrs: nounwind uwtable
define dso_local range(i32 -1, 16384) i32 @patternHashSlot(ptr noundef %0, i32 noundef %1) local_unnamed_addr #0 {
  %.not45 = icmp sgt i32 %1, 0
  br i1 %.not45, label %.lr.ph.preheader, label %._crit_edge

.lr.ph.preheader:                                 ; preds = %2
  %wide.trip.count = zext nneg i32 %1 to i64
  br label %.lr.ph

.lr.ph:                                           ; preds = %.lr.ph.preheader, %.critedge
  %indvars.iv = phi i64 [ 0, %.lr.ph.preheader ], [ %indvars.iv.next, %.critedge ]
  %.03146 = phi i32 [ -1, %.lr.ph.preheader ], [ %.1, %.critedge ]
  %3 = getelementptr inbounds nuw i8, ptr %0, i64 %indvars.iv
  %4 = load i8, ptr %3, align 1, !tbaa !5
  switch i8 %4, label %5 [
    i8 42, label %.thread
    i8 63, label %.thread
    i8 91, label %.thread
    i8 92, label %.thread
  ]

5:                                                ; preds = %.lr.ph
  %6 = icmp eq i32 %.03146, -1
  %7 = icmp eq i8 %4, 123
  %or.cond = and i1 %6, %7
  %8 = trunc nuw nsw i64 %indvars.iv to i32
  br i1 %or.cond, label %.critedge, label %9

9:                                                ; preds = %5
  %10 = icmp sgt i32 %.03146, -1
  br i1 %10, label %11, label %.critedge

11:                                               ; preds = %9
  %12 = icmp eq i8 %4, 125
  %13 = add nuw nsw i32 %.03146, 1
  %14 = zext nneg i32 %13 to i64
  %15 = icmp eq i64 %indvars.iv, %14
  %or.cond36 = select i1 %12, i1 %15, i1 false
  %.not39 = xor i1 %12, true
  %brmerge = select i1 %.not39, i1 true, i1 %15
  %.mux40 = select i1 %or.cond36, i32 -2, i32 %.03146
  br i1 %brmerge, label %.critedge, label %16

16:                                               ; preds = %11
  %17 = zext nneg i32 %.03146 to i64
  %18 = getelementptr inbounds nuw i8, ptr %0, i64 %17
  %19 = getelementptr inbounds nuw i8, ptr %18, i64 1
  %20 = xor i32 %.03146, -1
  %21 = add nsw i32 %8, %20
  %22 = tail call zeroext i16 @crc16(ptr noundef nonnull %19, i32 noundef %21) #16
  %23 = and i16 %22, 16383
  %24 = zext nneg i16 %23 to i32
  br label %.thread

.critedge:                                        ; preds = %11, %9, %5
  %.1 = phi i32 [ %8, %5 ], [ %.mux40, %11 ], [ %.03146, %9 ]
  %indvars.iv.next = add nuw nsw i64 %indvars.iv, 1
  %exitcond.not = icmp eq i64 %indvars.iv.next, %wide.trip.count
  br i1 %exitcond.not, label %._crit_edge, label %.lr.ph, !llvm.loop !8

._crit_edge:                                      ; preds = %.critedge, %2
  %25 = tail call zeroext i16 @crc16(ptr noundef %0, i32 noundef %1) #16
  %26 = and i16 %25, 16383
  %27 = zext nneg i16 %26 to i32
  br label %.thread

.thread:                                          ; preds = %.lr.ph, %.lr.ph, %.lr.ph, %.lr.ph, %16, %._crit_edge
  %.133 = phi i32 [ %27, %._crit_edge ], [ %24, %16 ], [ -1, %.lr.ph ], [ -1, %.lr.ph ], [ -1, %.lr.ph ], [ -1, %.lr.ph ]
  ret i32 %.133
}